target datalayout = "e-m:e-p270:32:32-p271:32:32-p272:64:64-i64:64-i128:128-f80:128-n8:16:32:64-S128"
target triple = "x86_64-pc-linux-gnu"

%struct.s_p_values = type { ptr, i32, i32, i32, ptr, ptr, ptr, ptr }

@.str.37 = private unnamed_addr constant [49 x i8] c"%s 1 specified more than once, latest value used\00", align 1

; Function Attrs: nounwind uwtable
define internal i32 @_handle_common(ptr noundef %0, ptr noundef %1, ptr noundef %2, ptr noundef %3, ptr noundef %4) #0 {
  %6 = alloca i32, align 4
  %7 = alloca ptr, align 8
  %8 = alloca ptr, align 8
  %9 = alloca ptr, align 8
  %10 = alloca ptr, align 8
  %11 = alloca ptr, align 8
  %12 = alloca i32, align 4
  %13 = alloca i32, align 4
  store ptr %0, ptr %7, align 8
  store ptr %1, ptr %8, align 8
  store ptr %2, ptr %9, align 8
  store ptr %3, ptr %10, align 8
  store ptr %4, ptr %11, align 8
  %14 = load ptr, ptr %7, align 8
  %15 = getelementptr inbounds nuw %struct.s_p_values, ptr %14, i32 0, i32 3
  %16 = load i32, ptr %15, align 8
  %17 = icmp ne i32 %16, 0
  br i1 %17, label %18, label %44

18:                                               ; preds = %5
  br label %19

19:                                               ; preds = %18
  %20 = call zeroext i1 @running_in_daemon()
  br i1 %20, label %21, label %26

21:                                               ; preds = %19
  %22 = load ptr, ptr %7, align 8
  %23 = getelementptr inbounds nuw %struct.s_p_values, ptr %22, i32 0, i32 0
  %24 = load ptr, ptr %23, align 8
  %25 = call i32 (ptr, ...) @error(ptr noundef @.str.37, ptr noundef %24)
  br label %38

26:                                               ; preds = %19
  br label %27

27:                                               ; preds = %26
  br label %28

28:                                               ; preds = %27
  %29 = call i32 @get_log_level()
  %30 = icmp sge i32 %29, 4
  br i1 %30, label %31, label %35

31:                                               ; preds = %28
  %32 = load ptr, ptr %7, align 8
  %33 = getelementptr inbounds nuw %struct.s_p_values, ptr %32, i32 0, i32 0
  %34 = load ptr, ptr %33, align 8
  call void (i32, ptr, ...) @log_var(i32 noundef 4, ptr noundef @.str.37, ptr noundef %34)
  br label %35

35:                                               ; preds = %31, %28
  br label %36

36:                                               ; preds = %35
  br label %37

37:                                               ; preds = %36
  br label %38

38:                                               ; preds = %37, %21
  br label %39

39:                                               ; preds = %38
  %40 = load ptr, ptr %7, align 8
  %41 = getelementptr inbounds nuw %struct.s_p_values, ptr %40, i32 0, i32 4
  call void @slurm_xfree(ptr noundef %41)
  %42 = load ptr, ptr %7, align 8
  %43 = getelementptr inbounds nuw %struct.s_p_values, ptr %42, i32 0, i32 3
  store i32 0, ptr %43, align 8
  br label %44

44:                                               ; preds = %39, %5
  %45 = load ptr, ptr %7, align 8
  %46 = getelementptr inbounds nuw %struct.s_p_values, ptr %45, i32 0, i32 5
  %47 = load ptr, ptr %46, align 8
  %48 = icmp ne ptr %47, null
  br i1 %48, label %49, label %75

49:                                               ; preds = %44
  call void @llvm.lifetime.start.p0(i64 4, ptr %12) #9
  %50 = load ptr, ptr %7, align 8
  %51 = getelementptr inbounds nuw %struct.s_p_values, ptr %50, i32 0, i32 5
  %52 = load ptr, ptr %51, align 8
  %53 = load ptr, ptr %7, align 8
  %54 = getelementptr inbounds nuw %struct.s_p_values, ptr %53, i32 0, i32 4
  %55 = load ptr, ptr %7, align 8
  %56 = getelementptr inbounds nuw %struct.s_p_values, ptr %55, i32 0, i32 1
  %57 = load i32, ptr %56, align 8
  %58 = load ptr, ptr %7, align 8
  %59 = getelementptr inbounds nuw %struct.s_p_values, ptr %58, i32 0, i32 0
  %60 = load ptr, ptr %59, align 8
  %61 = load ptr, ptr %8, align 8
  %62 = load ptr, ptr %9, align 8
  %63 = load ptr, ptr %10, align 8
  %64 = call i32 %52(ptr noundef %54, i32 noundef %57, ptr noundef %60, ptr noundef %61, ptr noundef %62, ptr noundef %63)
  store i32 %64, ptr %12, align 4
  %65 = load i32, ptr %12, align 4
  %66 = icmp ne i32 %65, 1
  br i1 %66, label %67, label %71

67:                                               ; preds = %49
  %68 = load i32, ptr %12, align 4
  %69 = icmp eq i32 %68, 0
  %70 = select i1 %69, i32 0, i32 -1
  store i32 %70, ptr %6, align 4
  store i32 1, ptr %13, align 4
  br label %72

71:                                               ; preds = %49
  store i32 0, ptr %13, align 4
  br label %72

72:                                               ; preds = %71, %67
  call void @llvm.lifetime.end.p0(i64 4, ptr %12) #9
  %73 = load i32, ptr %13, align 4
  switch i32 %73, label %95 [
    i32 0, label %74
    i32 1, label %93
  ]

74:                                               ; preds = %72
  br label %90

75:                                               ; preds = %44
  %76 = load ptr, ptr %11, align 8
  %77 = load ptr, ptr %7, align 8
  %78 = getelementptr inbounds nuw %struct.s_p_values, ptr %77, i32 0, i32 0
  %79 = load ptr, ptr %78, align 8
  %80 = load ptr, ptr %8, align 8
  %81 = call ptr %76(ptr noundef %79, ptr noundef %80)
  %82 = load ptr, ptr %7, align 8
  %83 = getelementptr inbounds nuw %struct.s_p_values, ptr %82, i32 0, i32 4
  store ptr %81, ptr %83, align 8
  %84 = load ptr, ptr %7, align 8
  %85 = getelementptr inbounds nuw %struct.s_p_values, ptr %84, i32 0, i32 4
  %86 = load ptr, ptr %85, align 8
  %87 = icmp ne ptr %86, null
  br i1 %87, label %89, label %88

88:                                               ; preds = %75
  store i32 -1, ptr %6, align 4
  br label %93

89:                                               ; preds = %75
  br label %90

90:                                               ; preds = %89, %74
  %91 = load ptr, ptr %7, align 8
  %92 = getelementptr inbounds nuw %struct.s_p_values, ptr %91, i32 0, i32 3
  store i32 1, ptr %92, align 8
  store i32 1, ptr %6, align 4
  br label %93

93:                                               ; preds = %90, %88, %72
  %94 = load i32, ptr %6, align 4
  ret i32 %94

95:                                               ; preds = %72
  unreachable
}