; Function Attrs: nounwind uwtable
define internal fastcc range(i32 -1, 2) i32 @_handle_common(ptr noundef nonnull %0, ptr noundef %1, ptr noundef %2, ptr noundef nonnull %3, ptr noundef readonly captures(none) %4) unnamed_addr #0 {
  %6 = getelementptr inbounds nuw i8, ptr %0, i64 16
  %7 = load i32, ptr %6, align 8
  %.not = icmp eq i32 %7, 0
  br i1 %.not, label %20, label %8

8:                                                ; preds = %5
  %9 = tail call zeroext i1 @running_in_daemon() #13
  br i1 %9, label %10, label %13

10:                                               ; preds = %8
  %11 = load ptr, ptr %0, align 8
  %12 = tail call i32 (ptr, ...) @error(ptr noundef nonnull @.str.37, ptr noundef %11) #13
  br label %18

13:                                               ; preds = %8
  %14 = tail call i32 @get_log_level() #13
  %15 = icmp sgt i32 %14, 3
  br i1 %15, label %16, label %18

16:                                               ; preds = %13
  %17 = load ptr, ptr %0, align 8
  tail call void (i32, ptr, ...) @log_var(i32 noundef 4, ptr noundef nonnull @.str.37, ptr noundef %17) #13
  br label %18

18:                                               ; preds = %10, %16, %13
  %19 = getelementptr inbounds nuw i8, ptr %0, i64 24
  tail call void @slurm_xfree(ptr noundef nonnull %19) #13
  store i32 0, ptr %6, align 8
  br label %20

20:                                               ; preds = %18, %5
  %21 = getelementptr inbounds nuw i8, ptr %0, i64 32
  %22 = load ptr, ptr %21, align 8
  %.not25 = icmp eq ptr %22, null
  br i1 %.not25, label %31, label %23

23:                                               ; preds = %20
  %24 = getelementptr inbounds nuw i8, ptr %0, i64 24
  %25 = getelementptr inbounds nuw i8, ptr %0, i64 8
  %26 = load i32, ptr %25, align 8
  %27 = load ptr, ptr %0, align 8
  %28 = tail call i32 %22(ptr noundef nonnull %24, i32 noundef %26, ptr noundef %27, ptr noundef %1, ptr noundef %2, ptr noundef nonnull %3) #13
  %.not27.not = icmp eq i32 %28, 1
  %29 = icmp ne i32 %28, 0
  %30 = sext i1 %29 to i32
  br i1 %.not27.not, label %35, label %36

31:                                               ; preds = %20
  %32 = load ptr, ptr %0, align 8
  %33 = tail call ptr %4(ptr noundef %32, ptr noundef %1) #13
  %34 = getelementptr inbounds nuw i8, ptr %0, i64 24
  store ptr %33, ptr %34, align 8
  %.not26 = icmp eq ptr %33, null
  br i1 %.not26, label %36, label %35

35:                                               ; preds = %23, %31
  store i32 1, ptr %6, align 8
  br label %36

36:                                               ; preds = %23, %31, %35
  %.1 = phi i32 [ %30, %23 ], [ 1, %35 ], [ -1, %31 ]
  ret i32 %.1
}